target datalayout = "e-m:e-p270:32:32-p271:32:32-p272:64:64-i64:64-i128:128-f80:128-n8:16:32:64-S128"
target triple = "x86_64-pc-linux-gnu"

%struct.AVExpr = type { i32, double, i32, %union.anon, [3 x ptr], ptr, ptr }
%union.anon = type { ptr }
%struct.Parser = type { ptr, i32, ptr, ptr, ptr, ptr, ptr, ptr, ptr, ptr, i32, ptr, ptr, ptr }

; Function Attrs: nounwind uwtable
define internal ptr @make_eval_expr(i32 noundef %0, i32 noundef %1, ptr noundef %2, ptr noundef %3) #0 {
  %5 = alloca ptr, align 8
  %6 = alloca i32, align 4
  %7 = alloca i32, align 4
  %8 = alloca ptr, align 8
  %9 = alloca ptr, align 8
  %10 = alloca ptr, align 8
  %11 = alloca i32, align 4
  store i32 %0, ptr %6, align 4, !tbaa !17
  store i32 %1, ptr %7, align 4, !tbaa !17
  store ptr %2, ptr %8, align 8, !tbaa !21
  store ptr %3, ptr %9, align 8, !tbaa !21
  call void @llvm.lifetime.start.p0(i64 8, ptr %10) #12
  %12 = call noalias ptr @av_mallocz(i64 noundef 72)
  store ptr %12, ptr %10, align 8, !tbaa !21
  %13 = load ptr, ptr %10, align 8, !tbaa !21
  %14 = icmp ne ptr %13, null
  br i1 %14, label %16, label %15

15:                                               ; preds = %4
  store ptr null, ptr %5, align 8
  store i32 1, ptr %11, align 4
  br label %33

16:                                               ; preds = %4
  %17 = load i32, ptr %6, align 4, !tbaa !17
  %18 = load ptr, ptr %10, align 8, !tbaa !21
  %19 = getelementptr inbounds nuw %struct.AVExpr, ptr %18, i32 0, i32 0
  store i32 %17, ptr %19, align 8, !tbaa !49
  %20 = load i32, ptr %7, align 4, !tbaa !17
  %21 = sitofp i32 %20 to double
  %22 = load ptr, ptr %10, align 8, !tbaa !21
  %23 = getelementptr inbounds nuw %struct.AVExpr, ptr %22, i32 0, i32 1
  store double %21, ptr %23, align 8, !tbaa !59
  %24 = load ptr, ptr %8, align 8, !tbaa !21
  %25 = load ptr, ptr %10, align 8, !tbaa !21
  %26 = getelementptr inbounds nuw %struct.AVExpr, ptr %25, i32 0, i32 4
  %27 = getelementptr inbounds [3 x ptr], ptr %26, i64 0, i64 0
  store ptr %24, ptr %27, align 8, !tbaa !21
  %28 = load ptr, ptr %9, align 8, !tbaa !21
  %29 = load ptr, ptr %10, align 8, !tbaa !21
  %30 = getelementptr inbounds nuw %struct.AVExpr, ptr %29, i32 0, i32 4
  %31 = getelementptr inbounds [3 x ptr], ptr %30, i64 0, i64 1
  store ptr %28, ptr %31, align 8, !tbaa !21
  %32 = load ptr, ptr %10, align 8, !tbaa !21
  store ptr %32, ptr %5, align 8
  store i32 1, ptr %11, align 4
  br label %33

33:                                               ; preds = %16, %15
  call void @llvm.lifetime.end.p0(i64 8, ptr %10) #12
  %34 = load ptr, ptr %5, align 8
  ret ptr %34
}

; Function Attrs: nounwind uwtable
define internal i32 @parse_expr(ptr noundef %0, ptr noundef %1) #0 {
  %3 = alloca i32, align 4
  %4 = alloca ptr, align 8
  %5 = alloca ptr, align 8
  %6 = alloca i32, align 4
  %7 = alloca ptr, align 8
  %8 = alloca ptr, align 8
  %9 = alloca ptr, align 8
  %10 = alloca i32, align 4
  store ptr %0, ptr %4, align 8, !tbaa !23
  store ptr %1, ptr %5, align 8, !tbaa !46
  call void @llvm.lifetime.start.p0(i64 4, ptr %6) #12
  call void @llvm.lifetime.start.p0(i64 8, ptr %7) #12
  call void @llvm.lifetime.start.p0(i64 8, ptr %8) #12
  call void @llvm.lifetime.start.p0(i64 8, ptr %9) #12
  %11 = load ptr, ptr %5, align 8, !tbaa !46
  %12 = getelementptr inbounds nuw %struct.Parser, ptr %11, i32 0, i32 1
  %13 = load i32, ptr %12, align 8, !tbaa !34
  %14 = icmp sle i32 %13, 0
  br i1 %14, label %15, label %16

15:                                               ; preds = %2
  store i32 -22, ptr %3, align 4
  store i32 1, ptr %10, align 4
  br label %63

16:                                               ; preds = %2
  %17 = load ptr, ptr %5, align 8, !tbaa !46
  %18 = getelementptr inbounds nuw %struct.Parser, ptr %17, i32 0, i32 1
  %19 = load i32, ptr %18, align 8, !tbaa !34
  %20 = add nsw i32 %19, -1
  store i32 %20, ptr %18, align 8, !tbaa !34
  %21 = load ptr, ptr %5, align 8, !tbaa !46
  %22 = call i32 @parse_subexpr(ptr noundef %7, ptr noundef %21)
  store i32 %22, ptr %6, align 4, !tbaa !17
  %23 = icmp slt i32 %22, 0
  br i1 %23, label %24, label %26

24:                                               ; preds = %16
  %25 = load i32, ptr %6, align 4, !tbaa !17
  store i32 %25, ptr %3, align 4
  store i32 1, ptr %10, align 4
  br label %63

26:                                               ; preds = %16
  br label %27

27:                                               ; preds = %55, %26
  %28 = load ptr, ptr %5, align 8, !tbaa !46
  %29 = getelementptr inbounds nuw %struct.Parser, ptr %28, i32 0, i32 2
  %30 = load ptr, ptr %29, align 8, !tbaa !35
  %31 = load i8, ptr %30, align 1, !tbaa !12
  %32 = sext i8 %31 to i32
  %33 = icmp eq i32 %32, 59
  br i1 %33, label %34, label %56

34:                                               ; preds = %27
  %35 = load ptr, ptr %5, align 8, !tbaa !46
  %36 = getelementptr inbounds nuw %struct.Parser, ptr %35, i32 0, i32 2
  %37 = load ptr, ptr %36, align 8, !tbaa !35
  %38 = getelementptr inbounds nuw i8, ptr %37, i32 1
  store ptr %38, ptr %36, align 8, !tbaa !35
  %39 = load ptr, ptr %7, align 8, !tbaa !21
  store ptr %39, ptr %8, align 8, !tbaa !21
  %40 = load ptr, ptr %5, align 8, !tbaa !46
  %41 = call i32 @parse_subexpr(ptr noundef %9, ptr noundef %40)
  store i32 %41, ptr %6, align 4, !tbaa !17
  %42 = icmp slt i32 %41, 0
  br i1 %42, label %43, label %46

43:                                               ; preds = %34
  %44 = load ptr, ptr %8, align 8, !tbaa !21
  call void @av_expr_free(ptr noundef %44)
  %45 = load i32, ptr %6, align 4, !tbaa !17
  store i32 %45, ptr %3, align 4
  store i32 1, ptr %10, align 4
  br label %63

46:                                               ; preds = %34
  %47 = load ptr, ptr %8, align 8, !tbaa !21
  %48 = load ptr, ptr %9, align 8, !tbaa !21
  %49 = call ptr @make_eval_expr(i32 noundef 22, i32 noundef 1, ptr noundef %47, ptr noundef %48)
  store ptr %49, ptr %7, align 8, !tbaa !21
  %50 = load ptr, ptr %7, align 8, !tbaa !21
  %51 = icmp ne ptr %50, null
  br i1 %51, label %55, label %52

52:                                               ; preds = %46
  %53 = load ptr, ptr %8, align 8, !tbaa !21
  call void @av_expr_free(ptr noundef %53)
  %54 = load ptr, ptr %9, align 8, !tbaa !21
  call void @av_expr_free(ptr noundef %54)
  store i32 -12, ptr %3, align 4
  store i32 1, ptr %10, align 4
  br label %63

55:                                               ; preds = %46
  br label %27, !llvm.loop !48

56:                                               ; preds = %27
  %57 = load ptr, ptr %5, align 8, !tbaa !46
  %58 = getelementptr inbounds nuw %struct.Parser, ptr %57, i32 0, i32 1
  %59 = load i32, ptr %58, align 8, !tbaa !34
  %60 = add nsw i32 %59, 1
  store i32 %60, ptr %58, align 8, !tbaa !34
  %61 = load ptr, ptr %7, align 8, !tbaa !21
  %62 = load ptr, ptr %4, align 8, !tbaa !23
  store ptr %61, ptr %62, align 8, !tbaa !21
  store i32 0, ptr %3, align 4
  store i32 1, ptr %10, align 4
  br label %63

63:                                               ; preds = %56, %52, %43, %24, %15
  call void @llvm.lifetime.end.p0(i64 8, ptr %9) #12
  call void @llvm.lifetime.end.p0(i64 8, ptr %8) #12
  call void @llvm.lifetime.end.p0(i64 8, ptr %7) #12
  call void @llvm.lifetime.end.p0(i64 4, ptr %6) #12
  %64 = load i32, ptr %3, align 4
  ret i32 %64
}