; Function Attrs: nounwind uwtable
define internal fastcc range(i32 -2147483648, 1) i32 @parse_expr(ptr noundef writeonly captures(none) %0, ptr noundef nonnull %1) unnamed_addr #3 {
  %3 = alloca ptr, align 8
  %4 = alloca ptr, align 8
  call void @llvm.lifetime.start.p0(i64 8, ptr nonnull %3) #14
  call void @llvm.lifetime.start.p0(i64 8, ptr nonnull %4) #14
  %5 = getelementptr inbounds nuw i8, ptr %1, i64 8
  %6 = load i32, ptr %5, align 8, !tbaa !27
  %7 = icmp slt i32 %6, 1
  br i1 %7, label %34, label %8

8:                                                ; preds = %2
  %9 = add nsw i32 %6, -1
  store i32 %9, ptr %5, align 8, !tbaa !27
  %10 = call fastcc i32 @parse_subexpr(ptr noundef %3, ptr noundef %1)
  %11 = icmp slt i32 %10, 0
  br i1 %11, label %34, label %.preheader

.preheader:                                       ; preds = %8
  %12 = getelementptr inbounds nuw i8, ptr %1, i64 16
  %.promoted = load ptr, ptr %3, align 8
  %13 = load ptr, ptr %12, align 8, !tbaa !28
  %14 = load i8, ptr %13, align 1, !tbaa !4
  %15 = icmp eq i8 %14, 59
  br i1 %15, label %.lr.ph, label %._crit_edge

.lr.ph:                                           ; preds = %.preheader, %make_eval_expr.exit
  %16 = phi ptr [ %28, %make_eval_expr.exit ], [ %13, %.preheader ]
  %17 = phi ptr [ %24, %make_eval_expr.exit ], [ %.promoted, %.preheader ]
  %18 = getelementptr inbounds nuw i8, ptr %16, i64 1
  store ptr %18, ptr %12, align 8, !tbaa !28
  %19 = call fastcc i32 @parse_subexpr(ptr noundef %4, ptr noundef %1)
  %20 = icmp slt i32 %19, 0
  br i1 %20, label %21, label %22

21:                                               ; preds = %.lr.ph
  tail call void @av_expr_free(ptr noundef %17)
  br label %34

22:                                               ; preds = %.lr.ph
  %23 = load ptr, ptr %4, align 8, !tbaa !15
  %24 = tail call noalias ptr @av_mallocz(i64 noundef 72) #14
  %.not.i = icmp eq ptr %24, null
  br i1 %.not.i, label %31, label %make_eval_expr.exit

make_eval_expr.exit:                              ; preds = %22
  store i32 22, ptr %24, align 8, !tbaa !39
  %25 = getelementptr inbounds nuw i8, ptr %24, i64 8
  store double 1.000000e+00, ptr %25, align 8, !tbaa !40
  %26 = getelementptr inbounds nuw i8, ptr %24, i64 32
  store ptr %17, ptr %26, align 8, !tbaa !15
  %27 = getelementptr inbounds nuw i8, ptr %24, i64 40
  store ptr %23, ptr %27, align 8, !tbaa !15
  %28 = load ptr, ptr %12, align 8, !tbaa !28
  %29 = load i8, ptr %28, align 1, !tbaa !4
  %30 = icmp eq i8 %29, 59
  br i1 %30, label %.lr.ph, label %._crit_edge, !llvm.loop !41

31:                                               ; preds = %22
  tail call void @av_expr_free(ptr noundef %17)
  tail call void @av_expr_free(ptr noundef %23)
  br label %34

._crit_edge:                                      ; preds = %make_eval_expr.exit, %.preheader
  %.lcssa21 = phi ptr [ %.promoted, %.preheader ], [ %24, %make_eval_expr.exit ]
  %32 = load i32, ptr %5, align 8, !tbaa !27
  %33 = add nsw i32 %32, 1
  store i32 %33, ptr %5, align 8, !tbaa !27
  store ptr %.lcssa21, ptr %0, align 8, !tbaa !15
  br label %34

34:                                               ; preds = %8, %2, %._crit_edge, %31, %21
  %.0 = phi i32 [ %19, %21 ], [ -12, %31 ], [ 0, %._crit_edge ], [ -22, %2 ], [ %10, %8 ]
  call void @llvm.lifetime.end.p0(i64 8, ptr nonnull %4) #14
  call void @llvm.lifetime.end.p0(i64 8, ptr nonnull %3) #14
  ret i32 %.0
}